; Function Attrs: mustprogress uwtable
define dso_local { i64, i8 } @_Z9readCountRKNSt7__cxx1112basic_stringIcSt11char_traitsIcESaIcEEE(ptr noundef nonnull readonly align 8 captures(none) dereferenceable(32) %0) local_unnamed_addr #7 personality ptr @__gxx_personality_v0 {
  %2 = alloca %"class.std::basic_ifstream", align 8
  %3 = alloca i64, align 8
  call void @llvm.lifetime.start.p0(i64 520, ptr nonnull %2) #32
  %4 = load ptr, ptr %0, align 8, !tbaa !15
  call void @_ZNSt14basic_ifstreamIcSt11char_traitsIcEEC1EPKcSt13_Ios_Openmode(ptr noundef nonnull align 8 dereferenceable(256) %2, ptr noundef %4, i32 noundef 8)
  %5 = getelementptr inbounds nuw i8, ptr %2, i64 120
  %6 = call noundef zeroext i1 @_ZNKSt12__basic_fileIcE7is_openEv(ptr noundef nonnull align 8 dereferenceable(9) %5) #36
  br i1 %6, label %7, label %19

7:                                                ; preds = %1
  call void @llvm.lifetime.start.p0(i64 8, ptr nonnull %3) #32
  store i64 0, ptr %3, align 8, !tbaa !14
  %8 = invoke noundef nonnull align 8 dereferenceable(16) ptr @_ZNSi10_M_extractIlEERSiRT_(ptr noundef nonnull align 8 dereferenceable(16) %2, ptr noundef nonnull align 8 dereferenceable(8) %3)
          to label %_ZNSirsERl.exit unwind label %17

_ZNSirsERl.exit:                                  ; preds = %7
  %9 = load ptr, ptr %2, align 8, !tbaa !42
  %10 = getelementptr i8, ptr %9, i64 -24
  %11 = load i64, ptr %10, align 8
  %12 = getelementptr inbounds i8, ptr %2, i64 %11
  %13 = getelementptr inbounds nuw i8, ptr %12, i64 32
  %14 = load i32, ptr %13, align 8, !tbaa !44
  %15 = icmp eq i32 %14, 0
  %16 = load i64, ptr %3, align 8
  %spec.select = select i1 %15, i64 %16, i64 0
  %spec.select17 = zext i1 %15 to i8
  call void @llvm.lifetime.end.p0(i64 8, ptr nonnull %3) #32
  br label %19

17:                                               ; preds = %7
  %18 = landingpad { ptr, i32 }
          cleanup
  call void @llvm.lifetime.end.p0(i64 8, ptr nonnull %3) #32
  call void @_ZNSt14basic_ifstreamIcSt11char_traitsIcEED1Ev(ptr noundef nonnull align 8 dereferenceable(256) %2) #32
  call void @llvm.lifetime.end.p0(i64 520, ptr nonnull %2) #32
  resume { ptr, i32 } %18

19:                                               ; preds = %1, %_ZNSirsERl.exit
  %.sroa.016.0 = phi i64 [ %spec.select, %_ZNSirsERl.exit ], [ 0, %1 ]
  %.sroa.4.0 = phi i8 [ %spec.select17, %_ZNSirsERl.exit ], [ 0, %1 ]
  call void @_ZNSt14basic_ifstreamIcSt11char_traitsIcEED1Ev(ptr noundef nonnull align 8 dereferenceable(256) %2) #32
  call void @llvm.lifetime.end.p0(i64 520, ptr nonnull %2) #32
  %.fca.0.insert = insertvalue { i64, i8 } poison, i64 %.sroa.016.0, 0
  %.fca.1.insert = insertvalue { i64, i8 } %.fca.0.insert, i8 %.sroa.4.0, 1
  ret { i64, i8 } %.fca.1.insert
}